; Function Attrs: mustprogress nofree norecurse nosync nounwind willreturn memory(read, inaccessiblemem: none) uwtable
define noundef nonnull align 8 dereferenceable(16) ptr @_ZNK5osgeo4proj9operation14Transformation9targetCRSEv(ptr nocapture noundef nonnull readonly align 8 dereferenceable(24) %0) local_unnamed_addr #6 align 2 {
  %2 = load ptr, ptr %0, align 8
  %3 = getelementptr i8, ptr %2, i64 -24
  %4 = load i64, ptr %3, align 8
  %5 = getelementptr inbounds i8, ptr %0, i64 %4
  %6 = getelementptr inbounds i8, ptr %5, i64 64
  %7 = load ptr, ptr %6, align 8
  %8 = getelementptr inbounds i8, ptr %7, i64 152
  %9 = load ptr, ptr %8, align 8
  %10 = getelementptr inbounds i8, ptr %9, i64 16
  ret ptr %10
}